target datalayout = "e-m:e-p270:32:32-p271:32:32-p272:64:64-i64:64-i128:128-f80:128-n8:16:32:64-S128"
target triple = "x86_64-pc-linux-gnu"

%struct.PJconsts = type { ptr, ptr, ptr, ptr, ptr, ptr, ptr, ptr, ptr, ptr, ptr, ptr, i32, ptr, ptr, ptr, ptr, ptr, ptr, ptr, ptr, double, double, double, double, double, double, double, double, double, double, double, double, double, double, double, double, double, double, double, double, double, double, i32, i32, i32, i32, i32, i32, i32, i32, i32, i32, i32, ptr, ptr, ptr, ptr, ptr, ptr, double, double, double, double, double, double, double, double, double, double, double, i32, [7 x double], i32, ptr, ptr, double, double, i32, [4 x i8], %"class.std::shared_ptr", i8, double, i8, %"class.std::__cxx11::basic_string", %"class.std::__cxx11::basic_string", %"class.std::__cxx11::basic_string", i8, %"class.std::vector", i32, %"class.std::vector.3", i32, i8, i8, i8, ptr }
%"class.std::shared_ptr" = type { %"class.std::__shared_ptr" }
%"class.std::__shared_ptr" = type { ptr, %"class.std::__shared_count" }
%"class.std::__shared_count" = type { ptr }
%"class.std::__cxx11::basic_string" = type { %"struct.std::__cxx11::basic_string<char>::_Alloc_hider", i64, %union.anon }
%"struct.std::__cxx11::basic_string<char>::_Alloc_hider" = type { ptr }
%union.anon = type { i64, [8 x i8] }
%"class.std::vector" = type { %"struct.std::_Vector_base" }
%"struct.std::_Vector_base" = type { %"struct.std::_Vector_base<osgeo::proj::operation::GridDescription, std::allocator<osgeo::proj::operation::GridDescription>>::_Vector_impl" }
%"struct.std::_Vector_base<osgeo::proj::operation::GridDescription, std::allocator<osgeo::proj::operation::GridDescription>>::_Vector_impl" = type { %"struct.std::_Vector_base<osgeo::proj::operation::GridDescription, std::allocator<osgeo::proj::operation::GridDescription>>::_Vector_impl_data" }
%"struct.std::_Vector_base<osgeo::proj::operation::GridDescription, std::allocator<osgeo::proj::operation::GridDescription>>::_Vector_impl_data" = type { ptr, ptr, ptr }
%"class.std::vector.3" = type { %"struct.std::_Vector_base.4" }
%"struct.std::_Vector_base.4" = type { %"struct.std::_Vector_base<PJCoordOperation, std::allocator<PJCoordOperation>>::_Vector_impl" }
%"struct.std::_Vector_base<PJCoordOperation, std::allocator<PJCoordOperation>>::_Vector_impl" = type { %"struct.std::_Vector_base<PJCoordOperation, std::allocator<PJCoordOperation>>::_Vector_impl_data" }
%"struct.std::_Vector_base<PJCoordOperation, std::allocator<PJCoordOperation>>::_Vector_impl_data" = type { ptr, ptr, ptr }
%"struct.(anonymous namespace)::pj_laea_data" = type { double, double, double, double, double, double, double, double, ptr, i32 }
%struct.PJ_LP = type { double, double }
%struct.PJ_XY = type { double, double }

; Function Attrs: mustprogress uwtable
define internal { double, double } @_ZL14laea_e_forward5PJ_LPP8PJconsts(double %0, double %1, ptr noundef %2) #0 {
  %4 = alloca %struct.PJ_XY, align 8
  %5 = alloca %struct.PJ_LP, align 8
  %6 = alloca ptr, align 8
  %7 = alloca ptr, align 8
  %8 = alloca double, align 8
  %9 = alloca double, align 8
  %10 = alloca double, align 8
  %11 = alloca double, align 8
  %12 = alloca double, align 8
  %13 = alloca double, align 8
  %14 = alloca double, align 8
  %15 = alloca double, align 8
  %16 = alloca i32, align 4
  %17 = getelementptr inbounds nuw { double, double }, ptr %5, i32 0, i32 0
  store double %0, ptr %17, align 8
  %18 = getelementptr inbounds nuw { double, double }, ptr %5, i32 0, i32 1
  store double %1, ptr %18, align 8
  store ptr %2, ptr %6, align 8, !tbaa !3
  call void @llvm.memset.p0.i64(ptr align 8 %4, i8 0, i64 16, i1 false)
  call void @llvm.lifetime.start.p0(i64 8, ptr %7) #7
  %19 = load ptr, ptr %6, align 8, !tbaa !3
  %20 = getelementptr inbounds nuw %struct.PJconsts, ptr %19, i32 0, i32 11
  %21 = load ptr, ptr %20, align 8, !tbaa !43
  store ptr %21, ptr %7, align 8, !tbaa !41
  call void @llvm.lifetime.start.p0(i64 8, ptr %8) #7
  call void @llvm.lifetime.start.p0(i64 8, ptr %9) #7
  call void @llvm.lifetime.start.p0(i64 8, ptr %10) #7
  call void @llvm.lifetime.start.p0(i64 8, ptr %11) #7
  call void @llvm.lifetime.start.p0(i64 8, ptr %12) #7
  store double 0.000000e+00, ptr %12, align 8, !tbaa !46
  call void @llvm.lifetime.start.p0(i64 8, ptr %13) #7
  store double 0.000000e+00, ptr %13, align 8, !tbaa !46
  call void @llvm.lifetime.start.p0(i64 8, ptr %14) #7
  store double 0.000000e+00, ptr %14, align 8, !tbaa !46
  %22 = getelementptr inbounds nuw %struct.PJ_LP, ptr %5, i32 0, i32 0
  %23 = load double, ptr %22, align 8, !tbaa !69
  %24 = call double @cos(double noundef %23) #7, !tbaa !52
  store double %24, ptr %8, align 8, !tbaa !46
  %25 = getelementptr inbounds nuw %struct.PJ_LP, ptr %5, i32 0, i32 0
  %26 = load double, ptr %25, align 8, !tbaa !69
  %27 = call double @sin(double noundef %26) #7, !tbaa !52
  store double %27, ptr %9, align 8, !tbaa !46
  %28 = getelementptr inbounds nuw %struct.PJ_LP, ptr %5, i32 0, i32 1
  %29 = load double, ptr %28, align 8, !tbaa !71
  %30 = call double @sin(double noundef %29) #7, !tbaa !52
  store double %30, ptr %10, align 8, !tbaa !46
  %31 = load double, ptr %10, align 8, !tbaa !46
  %32 = load ptr, ptr %6, align 8, !tbaa !3
  %33 = getelementptr inbounds nuw %struct.PJconsts, ptr %32, i32 0, i32 26
  %34 = load double, ptr %33, align 8, !tbaa !53
  %35 = load ptr, ptr %6, align 8, !tbaa !3
  %36 = getelementptr inbounds nuw %struct.PJconsts, ptr %35, i32 0, i32 32
  %37 = load double, ptr %36, align 8, !tbaa !54
  %38 = call noundef double @_Z7pj_qsfnddd(double noundef %31, double noundef %34, double noundef %37)
  store double %38, ptr %11, align 8, !tbaa !46
  %39 = load ptr, ptr %7, align 8, !tbaa !41
  %40 = getelementptr inbounds nuw %"struct.(anonymous namespace)::pj_laea_data", ptr %39, i32 0, i32 9
  %41 = load i32, ptr %40, align 8, !tbaa !47
  %42 = icmp eq i32 %41, 3
  br i1 %42, label %48, label %43

43:                                               ; preds = %3
  %44 = load ptr, ptr %7, align 8, !tbaa !41
  %45 = getelementptr inbounds nuw %"struct.(anonymous namespace)::pj_laea_data", ptr %44, i32 0, i32 9
  %46 = load i32, ptr %45, align 8, !tbaa !47
  %47 = icmp eq i32 %46, 2
  br i1 %47, label %48, label %66

48:                                               ; preds = %43, %3
  %49 = load double, ptr %11, align 8, !tbaa !46
  %50 = load ptr, ptr %7, align 8, !tbaa !41
  %51 = getelementptr inbounds nuw %"struct.(anonymous namespace)::pj_laea_data", ptr %50, i32 0, i32 5
  %52 = load double, ptr %51, align 8, !tbaa !55
  %53 = fdiv double %49, %52
  store double %53, ptr %12, align 8, !tbaa !46
  call void @llvm.lifetime.start.p0(i64 8, ptr %15) #7
  %54 = load double, ptr %12, align 8, !tbaa !46
  %55 = load double, ptr %12, align 8, !tbaa !46
  %56 = fneg double %54
  %57 = call double @llvm.fmuladd.f64(double %56, double %55, double 1.000000e+00)
  store double %57, ptr %15, align 8, !tbaa !46
  %58 = load double, ptr %15, align 8, !tbaa !46
  %59 = fcmp ogt double %58, 0.000000e+00
  br i1 %59, label %60, label %63

60:                                               ; preds = %48
  %61 = load double, ptr %15, align 8, !tbaa !46
  %62 = call double @sqrt(double noundef %61) #7, !tbaa !52
  br label %64

63:                                               ; preds = %48
  br label %64

64:                                               ; preds = %63, %60
  %65 = phi double [ %62, %60 ], [ 0.000000e+00, %63 ]
  store double %65, ptr %13, align 8, !tbaa !46
  call void @llvm.lifetime.end.p0(i64 8, ptr %15) #7
  br label %66

66:                                               ; preds = %64, %43
  %67 = load ptr, ptr %7, align 8, !tbaa !41
  %68 = getelementptr inbounds nuw %"struct.(anonymous namespace)::pj_laea_data", ptr %67, i32 0, i32 9
  %69 = load i32, ptr %68, align 8, !tbaa !47
  switch i32 %69, label %105 [
    i32 3, label %70
    i32 2, label %83
    i32 0, label %87
    i32 1, label %96
  ]

70:                                               ; preds = %66
  %71 = load ptr, ptr %7, align 8, !tbaa !41
  %72 = getelementptr inbounds nuw %"struct.(anonymous namespace)::pj_laea_data", ptr %71, i32 0, i32 0
  %73 = load double, ptr %72, align 8, !tbaa !62
  %74 = load double, ptr %12, align 8, !tbaa !46
  %75 = call double @llvm.fmuladd.f64(double %73, double %74, double 1.000000e+00)
  %76 = load ptr, ptr %7, align 8, !tbaa !41
  %77 = getelementptr inbounds nuw %"struct.(anonymous namespace)::pj_laea_data", ptr %76, i32 0, i32 1
  %78 = load double, ptr %77, align 8, !tbaa !63
  %79 = load double, ptr %13, align 8, !tbaa !46
  %80 = fmul double %78, %79
  %81 = load double, ptr %8, align 8, !tbaa !46
  %82 = call double @llvm.fmuladd.f64(double %80, double %81, double %75)
  store double %82, ptr %14, align 8, !tbaa !46
  br label %105

83:                                               ; preds = %66
  %84 = load double, ptr %13, align 8, !tbaa !46
  %85 = load double, ptr %8, align 8, !tbaa !46
  %86 = call double @llvm.fmuladd.f64(double %84, double %85, double 1.000000e+00)
  store double %86, ptr %14, align 8, !tbaa !46
  br label %105

87:                                               ; preds = %66
  %88 = getelementptr inbounds nuw %struct.PJ_LP, ptr %5, i32 0, i32 1
  %89 = load double, ptr %88, align 8, !tbaa !71
  %90 = fadd double 0x3FF921FB54442D18, %89
  store double %90, ptr %14, align 8, !tbaa !46
  %91 = load ptr, ptr %7, align 8, !tbaa !41
  %92 = getelementptr inbounds nuw %"struct.(anonymous namespace)::pj_laea_data", ptr %91, i32 0, i32 5
  %93 = load double, ptr %92, align 8, !tbaa !55
  %94 = load double, ptr %11, align 8, !tbaa !46
  %95 = fsub double %93, %94
  store double %95, ptr %11, align 8, !tbaa !46
  br label %105

96:                                               ; preds = %66
  %97 = getelementptr inbounds nuw %struct.PJ_LP, ptr %5, i32 0, i32 1
  %98 = load double, ptr %97, align 8, !tbaa !71
  %99 = fsub double %98, 0x3FF921FB54442D18
  store double %99, ptr %14, align 8, !tbaa !46
  %100 = load ptr, ptr %7, align 8, !tbaa !41
  %101 = getelementptr inbounds nuw %"struct.(anonymous namespace)::pj_laea_data", ptr %100, i32 0, i32 5
  %102 = load double, ptr %101, align 8, !tbaa !55
  %103 = load double, ptr %11, align 8, !tbaa !46
  %104 = fadd double %102, %103
  store double %104, ptr %11, align 8, !tbaa !46
  br label %105

105:                                              ; preds = %66, %96, %87, %83, %70
  %106 = load double, ptr %14, align 8, !tbaa !46
  %107 = call double @llvm.fabs.f64(double %106)
  %108 = fcmp olt double %107, 1.000000e-10
  br i1 %108, label %109, label %112

109:                                              ; preds = %105
  %110 = load ptr, ptr %6, align 8, !tbaa !3
  %111 = call i32 @proj_errno_set(ptr noundef %110, i32 noundef 2050)
  store i32 1, ptr %16, align 4
  br label %194

112:                                              ; preds = %105
  %113 = load ptr, ptr %7, align 8, !tbaa !41
  %114 = getelementptr inbounds nuw %"struct.(anonymous namespace)::pj_laea_data", ptr %113, i32 0, i32 9
  %115 = load i32, ptr %114, align 8, !tbaa !47
  switch i32 %115, label %193 [
    i32 3, label %116
    i32 2, label %140
    i32 0, label %165
    i32 1, label %165
  ]

116:                                              ; preds = %112
  %117 = load double, ptr %14, align 8, !tbaa !46
  %118 = fdiv double 2.000000e+00, %117
  %119 = call double @sqrt(double noundef %118) #7, !tbaa !52
  store double %119, ptr %14, align 8, !tbaa !46
  %120 = load ptr, ptr %7, align 8, !tbaa !41
  %121 = getelementptr inbounds nuw %"struct.(anonymous namespace)::pj_laea_data", ptr %120, i32 0, i32 3
  %122 = load double, ptr %121, align 8, !tbaa !61
  %123 = load double, ptr %14, align 8, !tbaa !46
  %124 = fmul double %122, %123
  %125 = load ptr, ptr %7, align 8, !tbaa !41
  %126 = getelementptr inbounds nuw %"struct.(anonymous namespace)::pj_laea_data", ptr %125, i32 0, i32 1
  %127 = load double, ptr %126, align 8, !tbaa !63
  %128 = load double, ptr %12, align 8, !tbaa !46
  %129 = load ptr, ptr %7, align 8, !tbaa !41
  %130 = getelementptr inbounds nuw %"struct.(anonymous namespace)::pj_laea_data", ptr %129, i32 0, i32 0
  %131 = load double, ptr %130, align 8, !tbaa !62
  %132 = load double, ptr %13, align 8, !tbaa !46
  %133 = fmul double %131, %132
  %134 = load double, ptr %8, align 8, !tbaa !46
  %135 = fmul double %133, %134
  %136 = fneg double %135
  %137 = call double @llvm.fmuladd.f64(double %127, double %128, double %136)
  %138 = fmul double %124, %137
  %139 = getelementptr inbounds nuw %struct.PJ_XY, ptr %4, i32 0, i32 1
  store double %138, ptr %139, align 8, !tbaa !68
  br label %154

140:                                              ; preds = %112
  %141 = load double, ptr %13, align 8, !tbaa !46
  %142 = load double, ptr %8, align 8, !tbaa !46
  %143 = call double @llvm.fmuladd.f64(double %141, double %142, double 1.000000e+00)
  %144 = fdiv double 2.000000e+00, %143
  %145 = call double @sqrt(double noundef %144) #7, !tbaa !52
  store double %145, ptr %14, align 8, !tbaa !46
  %146 = load double, ptr %14, align 8, !tbaa !46
  %147 = load double, ptr %12, align 8, !tbaa !46
  %148 = fmul double %146, %147
  %149 = load ptr, ptr %7, align 8, !tbaa !41
  %150 = getelementptr inbounds nuw %"struct.(anonymous namespace)::pj_laea_data", ptr %149, i32 0, i32 3
  %151 = load double, ptr %150, align 8, !tbaa !61
  %152 = fmul double %148, %151
  %153 = getelementptr inbounds nuw %struct.PJ_XY, ptr %4, i32 0, i32 1
  store double %152, ptr %153, align 8, !tbaa !68
  br label %154

154:                                              ; preds = %140, %116
  %155 = load ptr, ptr %7, align 8, !tbaa !41
  %156 = getelementptr inbounds nuw %"struct.(anonymous namespace)::pj_laea_data", ptr %155, i32 0, i32 2
  %157 = load double, ptr %156, align 8, !tbaa !60
  %158 = load double, ptr %14, align 8, !tbaa !46
  %159 = fmul double %157, %158
  %160 = load double, ptr %13, align 8, !tbaa !46
  %161 = fmul double %159, %160
  %162 = load double, ptr %9, align 8, !tbaa !46
  %163 = fmul double %161, %162
  %164 = getelementptr inbounds nuw %struct.PJ_XY, ptr %4, i32 0, i32 0
  store double %163, ptr %164, align 8, !tbaa !66
  br label %193

165:                                              ; preds = %112, %112
  %166 = load double, ptr %11, align 8, !tbaa !46
  %167 = fcmp oge double %166, 1.000000e-15
  br i1 %167, label %168, label %189

168:                                              ; preds = %165
  %169 = load double, ptr %11, align 8, !tbaa !46
  %170 = call double @sqrt(double noundef %169) #7, !tbaa !52
  store double %170, ptr %14, align 8, !tbaa !46
  %171 = load double, ptr %14, align 8, !tbaa !46
  %172 = load double, ptr %9, align 8, !tbaa !46
  %173 = fmul double %171, %172
  %174 = getelementptr inbounds nuw %struct.PJ_XY, ptr %4, i32 0, i32 0
  store double %173, ptr %174, align 8, !tbaa !66
  %175 = load double, ptr %8, align 8, !tbaa !46
  %176 = load ptr, ptr %7, align 8, !tbaa !41
  %177 = getelementptr inbounds nuw %"struct.(anonymous namespace)::pj_laea_data", ptr %176, i32 0, i32 9
  %178 = load i32, ptr %177, align 8, !tbaa !47
  %179 = icmp eq i32 %178, 1
  br i1 %179, label %180, label %182

180:                                              ; preds = %168
  %181 = load double, ptr %14, align 8, !tbaa !46
  br label %185

182:                                              ; preds = %168
  %183 = load double, ptr %14, align 8, !tbaa !46
  %184 = fneg double %183
  br label %185

185:                                              ; preds = %182, %180
  %186 = phi double [ %181, %180 ], [ %184, %182 ]
  %187 = fmul double %175, %186
  %188 = getelementptr inbounds nuw %struct.PJ_XY, ptr %4, i32 0, i32 1
  store double %187, ptr %188, align 8, !tbaa !68
  br label %192

189:                                              ; preds = %165
  %190 = getelementptr inbounds nuw %struct.PJ_XY, ptr %4, i32 0, i32 1
  store double 0.000000e+00, ptr %190, align 8, !tbaa !68
  %191 = getelementptr inbounds nuw %struct.PJ_XY, ptr %4, i32 0, i32 0
  store double 0.000000e+00, ptr %191, align 8, !tbaa !66
  br label %192

192:                                              ; preds = %189, %185
  br label %193

193:                                              ; preds = %112, %192, %154
  store i32 1, ptr %16, align 4
  br label %194

194:                                              ; preds = %193, %109
  call void @llvm.lifetime.end.p0(i64 8, ptr %14) #7
  call void @llvm.lifetime.end.p0(i64 8, ptr %13) #7
  call void @llvm.lifetime.end.p0(i64 8, ptr %12) #7
  call void @llvm.lifetime.end.p0(i64 8, ptr %11) #7
  call void @llvm.lifetime.end.p0(i64 8, ptr %10) #7
  call void @llvm.lifetime.end.p0(i64 8, ptr %9) #7
  call void @llvm.lifetime.end.p0(i64 8, ptr %8) #7
  call void @llvm.lifetime.end.p0(i64 8, ptr %7) #7
  %195 = load { double, double }, ptr %4, align 8
  ret { double, double } %195
}