; Function Attrs: mustprogress uwtable
define internal { double, double } @_ZL14laea_e_forward5PJ_LPP8PJconsts(double %0, double %1, ptr noundef %2) #0 {
  %4 = getelementptr inbounds nuw i8, ptr %2, i64 88
  %5 = load ptr, ptr %4, align 8, !tbaa !40
  %6 = tail call double @cos(double noundef %0) #7, !tbaa !49
  %7 = tail call double @sin(double noundef %0) #7, !tbaa !49
  %8 = tail call double @sin(double noundef %1) #7, !tbaa !49
  %9 = getelementptr inbounds nuw i8, ptr %2, i64 208
  %10 = load double, ptr %9, align 8, !tbaa !50
  %11 = getelementptr inbounds nuw i8, ptr %2, i64 256
  %12 = load double, ptr %11, align 8, !tbaa !51
  %13 = tail call noundef double @_Z7pj_qsfnddd(double noundef %8, double noundef %10, double noundef %12)
  %14 = getelementptr inbounds nuw i8, ptr %5, i64 72
  %15 = load i32, ptr %14, align 8, !tbaa !47
  %16 = and i32 %15, -2
  %switch = icmp eq i32 %16, 2
  br i1 %switch, label %17, label %26

17:                                               ; preds = %3
  %18 = getelementptr inbounds nuw i8, ptr %5, i64 40
  %19 = load double, ptr %18, align 8, !tbaa !52
  %20 = fdiv double %13, %19
  %21 = fneg double %20
  %22 = tail call double @llvm.fmuladd.f64(double %21, double %20, double 1.000000e+00)
  %23 = fcmp ogt double %22, 0.000000e+00
  br i1 %23, label %24, label %26

24:                                               ; preds = %17
  %25 = tail call double @sqrt(double noundef %22) #7, !tbaa !49
  br label %26

26:                                               ; preds = %3, %24, %17
  %.057 = phi double [ 0.000000e+00, %3 ], [ %20, %17 ], [ %20, %24 ]
  %.056 = phi double [ 0.000000e+00, %3 ], [ 0.000000e+00, %17 ], [ %25, %24 ]
  switch i32 %15, label %46 [
    i32 3, label %27
    i32 2, label %34
    i32 0, label %36
    i32 1, label %41
  ]

27:                                               ; preds = %26
  %28 = load double, ptr %5, align 8, !tbaa !58
  %29 = tail call double @llvm.fmuladd.f64(double %28, double %.057, double 1.000000e+00)
  %30 = getelementptr inbounds nuw i8, ptr %5, i64 8
  %31 = load double, ptr %30, align 8, !tbaa !59
  %32 = fmul double %.056, %31
  %33 = tail call double @llvm.fmuladd.f64(double %32, double %6, double %29)
  br label %46

34:                                               ; preds = %26
  %35 = tail call double @llvm.fmuladd.f64(double %.056, double %6, double 1.000000e+00)
  br label %46

36:                                               ; preds = %26
  %37 = fadd double %1, 0x3FF921FB54442D18
  %38 = getelementptr inbounds nuw i8, ptr %5, i64 40
  %39 = load double, ptr %38, align 8, !tbaa !52
  %40 = fsub double %39, %13
  br label %46

41:                                               ; preds = %26
  %42 = fadd double %1, 0xBFF921FB54442D18
  %43 = getelementptr inbounds nuw i8, ptr %5, i64 40
  %44 = load double, ptr %43, align 8, !tbaa !52
  %45 = fadd double %13, %44
  br label %46

46:                                               ; preds = %41, %36, %34, %27, %26
  %.058 = phi double [ %13, %26 ], [ %45, %41 ], [ %40, %36 ], [ %13, %34 ], [ %13, %27 ]
  %.0 = phi double [ 0.000000e+00, %26 ], [ %42, %41 ], [ %37, %36 ], [ %35, %34 ], [ %33, %27 ]
  %47 = tail call double @llvm.fabs.f64(double %.0)
  %48 = fcmp olt double %47, 1.000000e-10
  br i1 %48, label %49, label %51

49:                                               ; preds = %46
  %50 = tail call i32 @proj_errno_set(ptr noundef nonnull %2, i32 noundef 2050)
  br label %89

51:                                               ; preds = %46
  switch i32 %15, label %89 [
    i32 3, label %52
    i32 2, label %66
    i32 0, label %80
    i32 1, label %80
  ]

52:                                               ; preds = %51
  %53 = fdiv double 2.000000e+00, %.0
  %54 = tail call double @sqrt(double noundef %53) #7, !tbaa !49
  %55 = getelementptr inbounds nuw i8, ptr %5, i64 24
  %56 = load double, ptr %55, align 8, !tbaa !57
  %57 = fmul double %54, %56
  %58 = getelementptr inbounds nuw i8, ptr %5, i64 8
  %59 = load double, ptr %58, align 8, !tbaa !59
  %60 = load double, ptr %5, align 8, !tbaa !58
  %61 = fmul double %.056, %60
  %62 = fneg double %6
  %63 = fmul double %61, %62
  %64 = tail call double @llvm.fmuladd.f64(double %59, double %.057, double %63)
  %65 = fmul double %57, %64
  br label %74

66:                                               ; preds = %51
  %67 = tail call double @llvm.fmuladd.f64(double %.056, double %6, double 1.000000e+00)
  %68 = fdiv double 2.000000e+00, %67
  %69 = tail call double @sqrt(double noundef %68) #7, !tbaa !49
  %70 = fmul double %.057, %69
  %71 = getelementptr inbounds nuw i8, ptr %5, i64 24
  %72 = load double, ptr %71, align 8, !tbaa !57
  %73 = fmul double %70, %72
  br label %74

74:                                               ; preds = %66, %52
  %.sroa.5.2 = phi double [ %73, %66 ], [ %65, %52 ]
  %.1 = phi double [ %69, %66 ], [ %54, %52 ]
  %75 = getelementptr inbounds nuw i8, ptr %5, i64 16
  %76 = load double, ptr %75, align 8, !tbaa !56
  %77 = fmul double %.1, %76
  %78 = fmul double %.056, %77
  %79 = fmul double %7, %78
  br label %89

80:                                               ; preds = %51, %51
  %81 = fcmp ult double %.058, 1.000000e-15
  br i1 %81, label %89, label %82

82:                                               ; preds = %80
  %83 = tail call double @sqrt(double noundef %.058) #7, !tbaa !49
  %84 = fmul double %7, %83
  %85 = icmp eq i32 %15, 1
  %86 = fneg double %83
  %87 = select i1 %85, double %83, double %86
  %88 = fmul double %6, %87
  br label %89

89:                                               ; preds = %51, %74, %82, %80, %49
  %.sroa.5.0 = phi double [ 0.000000e+00, %49 ], [ 0.000000e+00, %51 ], [ %88, %82 ], [ %.sroa.5.2, %74 ], [ 0.000000e+00, %80 ]
  %.sroa.055.0 = phi double [ 0.000000e+00, %49 ], [ 0.000000e+00, %51 ], [ %84, %82 ], [ %79, %74 ], [ 0.000000e+00, %80 ]
  %.fca.0.insert = insertvalue { double, double } poison, double %.sroa.055.0, 0
  %.fca.1.insert = insertvalue { double, double } %.fca.0.insert, double %.sroa.5.0, 1
  ret { double, double } %.fca.1.insert
}